; Function Attrs: mustprogress uwtable
define noundef range(i32 0, 16) i32 @_ZNK7Imf_3_48TimeCode11binaryGroupEi(ptr noundef nonnull readonly align 4 captures(none) dereferenceable(8) %0, i32 noundef %1) local_unnamed_addr #1 align 2 personality ptr @__gxx_personality_v0 {
  %3 = add i32 %1, -9
  %or.cond = icmp ult i32 %3, -8
  br i1 %or.cond, label %4, label %9

4:                                                ; preds = %2
  %5 = tail call ptr @__cxa_allocate_exception(i64 72) #7
  invoke void @_ZN7Iex_3_46ArgExcC1EPKc(ptr noundef nonnull align 8 dereferenceable(72) %5, ptr noundef nonnull @.str.4)
          to label %6 unwind label %7

6:                                                ; preds = %4
  tail call void @__cxa_throw(ptr nonnull %5, ptr nonnull @_ZTIN7Iex_3_46ArgExcE, ptr nonnull @_ZN7Iex_3_46ArgExcD1Ev) #8
  unreachable

7:                                                ; preds = %4
  %8 = landingpad { ptr, i32 }
          cleanup
  tail call void @__cxa_free_exception(ptr nonnull %5) #7
  resume { ptr, i32 } %8

9:                                                ; preds = %2
  %10 = shl nuw nsw i32 %1, 2
  %11 = add nsw i32 %10, -4
  %12 = getelementptr inbounds nuw i8, ptr %0, i64 4
  %13 = load i32, ptr %12, align 4, !tbaa !8
  %14 = lshr i32 %13, %11
  %15 = and i32 %14, 15
  ret i32 %15
}